target datalayout = "e-m:e-p270:32:32-p271:32:32-p272:64:64-i64:64-i128:128-f80:128-n8:16:32:64-S128"
target triple = "x86_64-pc-linux-gnu"

; Function Attrs: nounwind uwtable
define internal i32 @ends_with(ptr noundef %0, ptr noundef %1, ptr noundef %2) #1 {
  %4 = alloca ptr, align 8
  %5 = alloca ptr, align 8
  %6 = alloca ptr, align 8
  %7 = alloca i32, align 4
  %8 = alloca i32, align 4
  store ptr %0, ptr %4, align 8, !tbaa !22
  store ptr %1, ptr %5, align 8, !tbaa !74
  store ptr %2, ptr %6, align 8, !tbaa !74
  call void @llvm.lifetime.start.p0(i64 4, ptr %7) #11
  %9 = load ptr, ptr %5, align 8, !tbaa !74
  %10 = call i64 @strlen(ptr noundef %9) #13
  %11 = trunc i64 %10 to i32
  store i32 %11, ptr %7, align 4, !tbaa !33
  call void @llvm.lifetime.start.p0(i64 4, ptr %8) #11
  %12 = load ptr, ptr %6, align 8, !tbaa !74
  %13 = call i64 @strlen(ptr noundef %12) #13
  %14 = trunc i64 %13 to i32
  store i32 %14, ptr %8, align 4, !tbaa !33
  %15 = load ptr, ptr %5, align 8, !tbaa !74
  %16 = load i32, ptr %7, align 4, !tbaa !33
  %17 = load i32, ptr %8, align 4, !tbaa !33
  %18 = sub nsw i32 %16, %17
  %19 = icmp sgt i32 %18, 0
  br i1 %19, label %20, label %24

20:                                               ; preds = %3
  %21 = load i32, ptr %7, align 4, !tbaa !33
  %22 = load i32, ptr %8, align 4, !tbaa !33
  %23 = sub nsw i32 %21, %22
  br label %25

24:                                               ; preds = %3
  br label %25

25:                                               ; preds = %24, %20
  %26 = phi i32 [ %23, %20 ], [ 0, %24 ]
  %27 = sext i32 %26 to i64
  %28 = getelementptr inbounds i8, ptr %15, i64 %27
  %29 = load ptr, ptr %6, align 8, !tbaa !74
  %30 = load i32, ptr %8, align 4, !tbaa !33
  %31 = sext i32 %30 to i64
  %32 = call i32 @strncmp(ptr noundef %28, ptr noundef %29, i64 noundef %31) #13
  %33 = icmp ne i32 %32, 0
  %34 = xor i1 %33, true
  %35 = zext i1 %34 to i32
  call void @llvm.lifetime.end.p0(i64 4, ptr %8) #11
  call void @llvm.lifetime.end.p0(i64 4, ptr %7) #11
  ret i32 %35
}