; Function Attrs: mustprogress nofree norecurse nounwind willreturn memory(argmem: read) uwtable
define internal range(i32 0, 2) i32 @ends_with(ptr readnone captures(none) %0, ptr noundef readonly captures(none) %1, ptr noundef readonly captures(none) %2) #7 {
  %4 = tail call i64 @strlen(ptr noundef nonnull dereferenceable(1) %1) #16
  %5 = trunc i64 %4 to i32
  %6 = tail call i64 @strlen(ptr noundef nonnull dereferenceable(1) %2) #16
  %7 = trunc i64 %6 to i32
  %8 = sub nsw i32 %5, %7
  %9 = tail call i32 @llvm.smax.i32(i32 %8, i32 0)
  %10 = zext nneg i32 %9 to i64
  %11 = getelementptr inbounds nuw i8, ptr %1, i64 %10
  %sext = shl i64 %6, 32
  %12 = ashr exact i64 %sext, 32
  %13 = tail call i32 @strncmp(ptr noundef nonnull %11, ptr noundef nonnull %2, i64 noundef %12) #16
  %.not = icmp eq i32 %13, 0
  %14 = zext i1 %.not to i32
  ret i32 %14
}